target datalayout = "e-m:e-p270:32:32-p271:32:32-p272:64:64-i64:64-i128:128-f80:128-n8:16:32:64-S128"
target triple = "x86_64-pc-linux-gnu"

%struct.HeapTupleData = type { i32, %struct.ItemPointerData, i32, ptr }
%struct.ItemPointerData = type { %struct.BlockIdData, i16 }
%struct.BlockIdData = type { i16, i16 }
%struct.HeapTupleHeaderData = type { %union.anon, %struct.ItemPointerData, i16, i16, i8, [0 x i8] }
%union.anon = type { %struct.HeapTupleFields }
%struct.HeapTupleFields = type { i32, i32, %union.anon.0 }
%union.anon.0 = type { i32 }
%struct.nameData = type { [64 x i8] }
%struct.FormData_pg_type = type { i32, %struct.nameData, i32, i32, i16, i8, i8, i8, i8, i8, i8, i32, i32, i32, i32, i32, i32, i32, i32, i32, i32, i32, i8, i8, i8, i32, i32, i32, i32 }

@.str.1 = private unnamed_addr constant [12 x i8] c"lsyscache.c\00", align 1
@.str.13 = private unnamed_addr constant [32 x i8] c"cache lookup failed for type %u\00", align 1
@.str.15 = private unnamed_addr constant [24 x i8] c"type %s is only a shell\00", align 1
@__func__.getTypeBinaryOutputInfo = private unnamed_addr constant [24 x i8] c"getTypeBinaryOutputInfo\00", align 1
@.str.19 = private unnamed_addr constant [48 x i8] c"no binary output function available for type %s\00", align 1

; Function Attrs: inlinehint nounwind uwtable
define internal ptr @GETSTRUCT(ptr noundef %0) #2 {
  %2 = alloca ptr, align 8
  store ptr %0, ptr %2, align 8
  %3 = load ptr, ptr %2, align 8
  %4 = getelementptr inbounds nuw %struct.HeapTupleData, ptr %3, i32 0, i32 3
  %5 = load ptr, ptr %4, align 8
  %6 = load ptr, ptr %2, align 8
  %7 = getelementptr inbounds nuw %struct.HeapTupleData, ptr %6, i32 0, i32 3
  %8 = load ptr, ptr %7, align 8
  %9 = getelementptr inbounds nuw %struct.HeapTupleHeaderData, ptr %8, i32 0, i32 4
  %10 = load i8, ptr %9, align 2
  %11 = zext i8 %10 to i32
  %12 = sext i32 %11 to i64
  %13 = getelementptr inbounds i8, ptr %5, i64 %12
  ret ptr %13
}

; Function Attrs: inlinehint nounwind uwtable
define internal i64 @ObjectIdGetDatum(i32 noundef %0) #2 {
  %2 = alloca i32, align 4
  store i32 %0, ptr %2, align 4
  %3 = load i32, ptr %2, align 4
  %4 = zext i32 %3 to i64
  ret i64 %4
}

; Function Attrs: nounwind uwtable
define dso_local void @getTypeBinaryOutputInfo(i32 noundef %0, ptr noundef %1, ptr noundef %2) #0 {
  %4 = alloca i32, align 4
  %5 = alloca ptr, align 8
  %6 = alloca ptr, align 8
  %7 = alloca ptr, align 8
  %8 = alloca ptr, align 8
  store i32 %0, ptr %4, align 4
  store ptr %1, ptr %5, align 8
  store ptr %2, ptr %6, align 8
  call void @llvm.lifetime.start.p0(i64 8, ptr %7) #7
  call void @llvm.lifetime.start.p0(i64 8, ptr %8) #7
  %9 = load i32, ptr %4, align 4
  %10 = call i64 @ObjectIdGetDatum(i32 noundef %9)
  %11 = call ptr @SearchSysCache1(i32 noundef 82, i64 noundef %10)
  store ptr %11, ptr %7, align 8
  %12 = load ptr, ptr %7, align 8
  %13 = icmp ne ptr %12, null
  br i1 %13, label %26, label %14

14:                                               ; preds = %3
  br label %15

15:                                               ; preds = %14
  br i1 true, label %16, label %18

16:                                               ; preds = %15
  %17 = call zeroext i1 @errstart_cold(i32 noundef 21, ptr noundef null) #8
  br i1 %17, label %20, label %23

18:                                               ; preds = %15
  %19 = call zeroext i1 @errstart(i32 noundef 21, ptr noundef null)
  br i1 %19, label %20, label %23

20:                                               ; preds = %18, %16
  %21 = load i32, ptr %4, align 4
  %22 = call i32 (ptr, ...) @errmsg_internal(ptr noundef @.str.13, i32 noundef %21)
  call void @errfinish(ptr noundef @.str.1, i32 noundef 3007, ptr noundef @__func__.getTypeBinaryOutputInfo)
  br label %23

23:                                               ; preds = %20, %18, %16
  unreachable

24:                                               ; No predecessors!
  br label %25

25:                                               ; preds = %24
  br label %26

26:                                               ; preds = %25, %3
  %27 = load ptr, ptr %7, align 8
  %28 = call ptr @GETSTRUCT(ptr noundef %27)
  store ptr %28, ptr %8, align 8
  %29 = load ptr, ptr %8, align 8
  %30 = getelementptr inbounds nuw %struct.FormData_pg_type, ptr %29, i32 0, i32 9
  %31 = load i8, ptr %30, align 2, !range !4, !noundef !5
  %32 = trunc i8 %31 to i1
  br i1 %32, label %47, label %33

33:                                               ; preds = %26
  br label %34

34:                                               ; preds = %33
  br i1 true, label %35, label %37

35:                                               ; preds = %34
  %36 = call zeroext i1 @errstart_cold(i32 noundef 21, ptr noundef null) #8
  br i1 %36, label %39, label %44

37:                                               ; preds = %34
  %38 = call zeroext i1 @errstart(i32 noundef 21, ptr noundef null)
  br i1 %38, label %39, label %44

39:                                               ; preds = %37, %35
  %40 = call i32 @errcode(i32 noundef 67137668)
  %41 = load i32, ptr %4, align 4
  %42 = call ptr @format_type_be(i32 noundef %41)
  %43 = call i32 (ptr, ...) @errmsg(ptr noundef @.str.15, ptr noundef %42)
  call void @errfinish(ptr noundef @.str.1, i32 noundef 3014, ptr noundef @__func__.getTypeBinaryOutputInfo)
  br label %44

44:                                               ; preds = %39, %37, %35
  unreachable

45:                                               ; No predecessors!
  br label %46

46:                                               ; preds = %45
  br label %47

47:                                               ; preds = %46, %26
  %48 = load ptr, ptr %8, align 8
  %49 = getelementptr inbounds nuw %struct.FormData_pg_type, ptr %48, i32 0, i32 18
  %50 = load i32, ptr %49, align 4
  %51 = icmp ne i32 %50, 0
  br i1 %51, label %66, label %52

52:                                               ; preds = %47
  br label %53

53:                                               ; preds = %52
  br i1 true, label %54, label %56

54:                                               ; preds = %53
  %55 = call zeroext i1 @errstart_cold(i32 noundef 21, ptr noundef null) #8
  br i1 %55, label %58, label %63

56:                                               ; preds = %53
  %57 = call zeroext i1 @errstart(i32 noundef 21, ptr noundef null)
  br i1 %57, label %58, label %63

58:                                               ; preds = %56, %54
  %59 = call i32 @errcode(i32 noundef 52461700)
  %60 = load i32, ptr %4, align 4
  %61 = call ptr @format_type_be(i32 noundef %60)
  %62 = call i32 (ptr, ...) @errmsg(ptr noundef @.str.19, ptr noundef %61)
  call void @errfinish(ptr noundef @.str.1, i32 noundef 3019, ptr noundef @__func__.getTypeBinaryOutputInfo)
  br label %63

63:                                               ; preds = %58, %56, %54
  unreachable

64:                                               ; No predecessors!
  br label %65

65:                                               ; preds = %64
  br label %66

66:                                               ; preds = %65, %47
  %67 = load ptr, ptr %8, align 8
  %68 = getelementptr inbounds nuw %struct.FormData_pg_type, ptr %67, i32 0, i32 18
  %69 = load i32, ptr %68, align 4
  %70 = load ptr, ptr %5, align 8
  store i32 %69, ptr %70, align 4
  %71 = load ptr, ptr %8, align 8
  %72 = getelementptr inbounds nuw %struct.FormData_pg_type, ptr %71, i32 0, i32 5
  %73 = load i8, ptr %72, align 2, !range !4, !noundef !5
  %74 = trunc i8 %73 to i1
  br i1 %74, label %81, label %75

75:                                               ; preds = %66
  %76 = load ptr, ptr %8, align 8
  %77 = getelementptr inbounds nuw %struct.FormData_pg_type, ptr %76, i32 0, i32 4
  %78 = load i16, ptr %77, align 4
  %79 = sext i16 %78 to i32
  %80 = icmp eq i32 %79, -1
  br label %81

81:                                               ; preds = %75, %66
  %82 = phi i1 [ false, %66 ], [ %80, %75 ]
  %83 = load ptr, ptr %6, align 8
  %84 = zext i1 %82 to i8
  store i8 %84, ptr %83, align 1
  %85 = load ptr, ptr %7, align 8
  call void @ReleaseSysCache(ptr noundef %85)
  call void @llvm.lifetime.end.p0(i64 8, ptr %8) #7
  call void @llvm.lifetime.end.p0(i64 8, ptr %7) #7
  ret void
}