; Function Attrs: nounwind uwtable
define dso_local void @getTypeBinaryOutputInfo(i32 noundef %0, ptr noundef writeonly captures(none) %1, ptr noundef writeonly captures(none) %2) local_unnamed_addr #0 {
  %4 = zext i32 %0 to i64
  %5 = tail call ptr @SearchSysCache1(i32 noundef 82, i64 noundef %4) #8
  %.not = icmp eq ptr %5, null
  br i1 %.not, label %6, label %9

6:                                                ; preds = %3
  %7 = tail call zeroext i1 @errstart_cold(i32 noundef 21, ptr noundef null) #9
  tail call void @llvm.assume(i1 %7)
  %8 = tail call i32 (ptr, ...) @errmsg_internal(ptr noundef nonnull @.str.13, i32 noundef %0) #8
  tail call void @errfinish(ptr noundef nonnull @.str.1, i32 noundef 3007, ptr noundef nonnull @__func__.getTypeBinaryOutputInfo) #8
  unreachable

9:                                                ; preds = %3
  %10 = getelementptr i8, ptr %5, i64 16
  %.val = load ptr, ptr %10, align 8
  %11 = getelementptr inbounds nuw i8, ptr %.val, i64 22
  %12 = load i8, ptr %11, align 2
  %13 = zext i8 %12 to i64
  %14 = getelementptr inbounds nuw i8, ptr %.val, i64 %13
  %15 = getelementptr inbounds nuw i8, ptr %14, i64 82
  %16 = load i8, ptr %15, align 2, !range !14, !noundef !15
  %17 = trunc nuw i8 %16 to i1
  br i1 %17, label %23, label %18

18:                                               ; preds = %9
  %19 = tail call zeroext i1 @errstart_cold(i32 noundef 21, ptr noundef null) #9
  tail call void @llvm.assume(i1 %19)
  %20 = tail call i32 @errcode(i32 noundef 67137668) #8
  %21 = tail call ptr @format_type_be(i32 noundef %0) #8
  %22 = tail call i32 (ptr, ...) @errmsg(ptr noundef nonnull @.str.15, ptr noundef %21) #8
  tail call void @errfinish(ptr noundef nonnull @.str.1, i32 noundef 3014, ptr noundef nonnull @__func__.getTypeBinaryOutputInfo) #8
  unreachable

23:                                               ; preds = %9
  %24 = getelementptr inbounds nuw i8, ptr %14, i64 112
  %25 = load i32, ptr %24, align 4
  %.not14 = icmp eq i32 %25, 0
  br i1 %.not14, label %26, label %31

26:                                               ; preds = %23
  %27 = tail call zeroext i1 @errstart_cold(i32 noundef 21, ptr noundef null) #9
  tail call void @llvm.assume(i1 %27)
  %28 = tail call i32 @errcode(i32 noundef 52461700) #8
  %29 = tail call ptr @format_type_be(i32 noundef %0) #8
  %30 = tail call i32 (ptr, ...) @errmsg(ptr noundef nonnull @.str.19, ptr noundef %29) #8
  tail call void @errfinish(ptr noundef nonnull @.str.1, i32 noundef 3019, ptr noundef nonnull @__func__.getTypeBinaryOutputInfo) #8
  unreachable

31:                                               ; preds = %23
  store i32 %25, ptr %1, align 4
  %32 = getelementptr inbounds nuw i8, ptr %14, i64 78
  %33 = load i8, ptr %32, align 2, !range !14, !noundef !15
  %34 = trunc nuw i8 %33 to i1
  br i1 %34, label %40, label %35

35:                                               ; preds = %31
  %36 = getelementptr inbounds nuw i8, ptr %14, i64 76
  %37 = load i16, ptr %36, align 4
  %38 = icmp eq i16 %37, -1
  %39 = zext i1 %38 to i8
  br label %40

40:                                               ; preds = %35, %31
  %41 = phi i8 [ 0, %31 ], [ %39, %35 ]
  store i8 %41, ptr %2, align 1
  tail call void @ReleaseSysCache(ptr noundef nonnull %5) #8
  ret void
}